target datalayout = "e-m:e-p270:32:32-p271:32:32-p272:64:64-i64:64-i128:128-f80:128-n8:16:32:64-S128"
target triple = "x86_64-pc-linux-gnu"

%struct.GCtab = type { %struct.GCRef, i8, i8, i8, i8, %struct.MRef, %struct.GCRef, %struct.GCRef, %struct.MRef, i32, i32, %struct.MRef }
%struct.GCRef = type { i64 }
%struct.MRef = type { i64 }

; Function Attrs: nounwind uwtable
define hidden void @lj_tab_reasize(ptr noundef %0, ptr noundef %1, i32 noundef %2) #0 {
  %4 = alloca ptr, align 8
  %5 = alloca ptr, align 8
  %6 = alloca i32, align 4
  store ptr %0, ptr %4, align 8, !tbaa !4
  store ptr %1, ptr %5, align 8, !tbaa !11
  store i32 %2, ptr %6, align 4, !tbaa !9
  %7 = load ptr, ptr %4, align 8, !tbaa !4
  %8 = load ptr, ptr %5, align 8, !tbaa !11
  %9 = load i32, ptr %6, align 4, !tbaa !9
  %10 = add i32 %9, 1
  %11 = load ptr, ptr %5, align 8, !tbaa !11
  %12 = getelementptr inbounds nuw %struct.GCtab, ptr %11, i32 0, i32 10
  %13 = load i32, ptr %12, align 4, !tbaa !13
  %14 = icmp ugt i32 %13, 0
  br i1 %14, label %15, label %22

15:                                               ; preds = %3
  %16 = load ptr, ptr %5, align 8, !tbaa !11
  %17 = getelementptr inbounds nuw %struct.GCtab, ptr %16, i32 0, i32 10
  %18 = load i32, ptr %17, align 4, !tbaa !13
  %19 = call i32 @llvm.ctlz.i32(i32 %18, i1 true)
  %20 = xor i32 %19, 31
  %21 = add i32 %20, 1
  br label %23

22:                                               ; preds = %3
  br label %23

23:                                               ; preds = %22, %15
  %24 = phi i32 [ %21, %15 ], [ 0, %22 ]
  call void @lj_tab_resize(ptr noundef %7, ptr noundef %8, i32 noundef %10, i32 noundef %24)
  ret void
}