; Function Attrs: nounwind uwtable
define hidden void @lj_tab_reasize(ptr noundef %0, ptr noundef %1, i32 noundef %2) local_unnamed_addr #0 {
  %4 = getelementptr inbounds nuw i8, ptr %1, i64 52
  %5 = load i32, ptr %4, align 4, !tbaa !14
  %.not = icmp eq i32 %5, 0
  %6 = tail call range(i32 0, 33) i32 @llvm.ctlz.i32(i32 %5, i1 true)
  %7 = sub nuw nsw i32 32, %6
  %8 = select i1 %.not, i32 0, i32 %7
  %9 = add i32 %2, 1
  tail call void @lj_tab_resize(ptr noundef %0, ptr noundef %1, i32 noundef %9, i32 noundef %8)
  ret void
}